target datalayout = "e-m:e-p270:32:32-p271:32:32-p272:64:64-i64:64-i128:128-f80:128-n8:16:32:64-S128"
target triple = "x86_64-pc-linux-gnu"

%"struct.absl::debugging_internal::State" = type { ptr, ptr, i32, i32, i32, %"struct.absl::debugging_internal::ParseState" }
%"struct.absl::debugging_internal::ParseState" = type { i32, i32, i32, i32 }
%"class.absl::debugging_internal::(anonymous namespace)::ComplexityGuard" = type { ptr }

; Function Attrs: mustprogress nounwind uwtable
define internal void @_ZN4absl18debugging_internal12_GLOBAL__N_115ComplexityGuardD2Ev(ptr noundef nonnull align 8 dereferenceable(8) %0) unnamed_addr #3 align 2 {
  %2 = alloca ptr, align 8
  store ptr %0, ptr %2, align 8, !tbaa !27
  %3 = load ptr, ptr %2, align 8
  %4 = getelementptr inbounds nuw %"class.absl::debugging_internal::(anonymous namespace)::ComplexityGuard", ptr %3, i32 0, i32 0
  %5 = load ptr, ptr %4, align 8, !tbaa !29
  %6 = getelementptr inbounds nuw %"struct.absl::debugging_internal::State", ptr %5, i32 0, i32 3
  %7 = load i32, ptr %6, align 4, !tbaa !20
  %8 = add nsw i32 %7, -1
  store i32 %8, ptr %6, align 4, !tbaa !20
  ret void
}

; Function Attrs: mustprogress nounwind uwtable
define internal noundef zeroext i1 @_ZNK4absl18debugging_internal12_GLOBAL__N_115ComplexityGuard12IsTooComplexEv(ptr noundef nonnull align 8 dereferenceable(8) %0) #3 align 2 {
  %2 = alloca i1, align 1
  %3 = alloca ptr, align 8
  store ptr %0, ptr %3, align 8, !tbaa !27
  %4 = load ptr, ptr %3, align 8
  %5 = getelementptr inbounds nuw %"class.absl::debugging_internal::(anonymous namespace)::ComplexityGuard", ptr %4, i32 0, i32 0
  %6 = load ptr, ptr %5, align 8, !tbaa !29
  %7 = getelementptr inbounds nuw %"struct.absl::debugging_internal::State", ptr %6, i32 0, i32 3
  %8 = load i32, ptr %7, align 4, !tbaa !20
  %9 = icmp sgt i32 %8, 256
  br i1 %9, label %16, label %10

10:                                               ; preds = %1
  %11 = getelementptr inbounds nuw %"class.absl::debugging_internal::(anonymous namespace)::ComplexityGuard", ptr %4, i32 0, i32 0
  %12 = load ptr, ptr %11, align 8, !tbaa !29
  %13 = getelementptr inbounds nuw %"struct.absl::debugging_internal::State", ptr %12, i32 0, i32 4
  %14 = load i32, ptr %13, align 8, !tbaa !21
  %15 = icmp sgt i32 %14, 131072
  br i1 %15, label %16, label %17

16:                                               ; preds = %10, %1
  store i1 true, ptr %2, align 1
  br label %18

17:                                               ; preds = %10
  store i1 false, ptr %2, align 1
  br label %18

18:                                               ; preds = %17, %16
  %19 = load i1, ptr %2, align 1
  ret i1 %19
}

; Function Attrs: mustprogress nounwind uwtable
define internal void @_ZN4absl18debugging_internal12_GLOBAL__N_115ComplexityGuardC2EPNS0_5StateE(ptr noundef nonnull align 8 dereferenceable(8) %0, ptr noundef %1) unnamed_addr #3 align 2 {
  %3 = alloca ptr, align 8
  %4 = alloca ptr, align 8
  store ptr %0, ptr %3, align 8, !tbaa !27
  store ptr %1, ptr %4, align 8, !tbaa !16
  %5 = load ptr, ptr %3, align 8
  %6 = getelementptr inbounds nuw %"class.absl::debugging_internal::(anonymous namespace)::ComplexityGuard", ptr %5, i32 0, i32 0
  %7 = load ptr, ptr %4, align 8, !tbaa !16
  store ptr %7, ptr %6, align 8, !tbaa !29
  %8 = load ptr, ptr %4, align 8, !tbaa !16
  %9 = getelementptr inbounds nuw %"struct.absl::debugging_internal::State", ptr %8, i32 0, i32 3
  %10 = load i32, ptr %9, align 4, !tbaa !20
  %11 = add nsw i32 %10, 1
  store i32 %11, ptr %9, align 4, !tbaa !20
  %12 = load ptr, ptr %4, align 8, !tbaa !16
  %13 = getelementptr inbounds nuw %"struct.absl::debugging_internal::State", ptr %12, i32 0, i32 4
  %14 = load i32, ptr %13, align 8, !tbaa !21
  %15 = add nsw i32 %14, 1
  store i32 %15, ptr %13, align 8, !tbaa !21
  ret void
}

; Function Attrs: mustprogress uwtable
define internal noundef zeroext i1 @_ZN4absl18debugging_internalL26ParseTemplateTemplateParamEPNS0_5StateE(ptr noundef %0) #0 personality ptr @__gxx_personality_v0 {
  %2 = alloca i1, align 1
  %3 = alloca ptr, align 8
  %4 = alloca %"class.absl::debugging_internal::(anonymous namespace)::ComplexityGuard", align 8
  %5 = alloca i32, align 4
  %6 = alloca ptr, align 8
  %7 = alloca i32, align 4
  store ptr %0, ptr %3, align 8, !tbaa !16
  call void @llvm.lifetime.start.p0(i64 8, ptr %4) #12
  %8 = load ptr, ptr %3, align 8, !tbaa !16
  call void @_ZN4absl18debugging_internal12_GLOBAL__N_115ComplexityGuardC2EPNS0_5StateE(ptr noundef nonnull align 8 dereferenceable(8) %4, ptr noundef %8)
  %9 = call noundef zeroext i1 @_ZNK4absl18debugging_internal12_GLOBAL__N_115ComplexityGuard12IsTooComplexEv(ptr noundef nonnull align 8 dereferenceable(8) %4)
  br i1 %9, label %10, label %11

10:                                               ; preds = %1
  store i1 false, ptr %2, align 1
  store i32 1, ptr %5, align 4
  br label %25

11:                                               ; preds = %1
  %12 = load ptr, ptr %3, align 8, !tbaa !16
  %13 = invoke noundef zeroext i1 @_ZN4absl18debugging_internalL18ParseTemplateParamEPNS0_5StateE(ptr noundef %12)
          to label %14 unwind label %21

14:                                               ; preds = %11
  br i1 %13, label %19, label %15

15:                                               ; preds = %14
  %16 = load ptr, ptr %3, align 8, !tbaa !16
  %17 = invoke noundef zeroext i1 @_ZN4absl18debugging_internalL17ParseSubstitutionEPNS0_5StateEb(ptr noundef %16, i1 noundef zeroext false)
          to label %18 unwind label %21

18:                                               ; preds = %15
  br label %19

19:                                               ; preds = %18, %14
  %20 = phi i1 [ true, %14 ], [ %17, %18 ]
  store i1 %20, ptr %2, align 1
  store i32 1, ptr %5, align 4
  br label %25

21:                                               ; preds = %15, %11
  %22 = landingpad { ptr, i32 }
          cleanup
  %23 = extractvalue { ptr, i32 } %22, 0
  store ptr %23, ptr %6, align 8
  %24 = extractvalue { ptr, i32 } %22, 1
  store i32 %24, ptr %7, align 4
  call void @_ZN4absl18debugging_internal12_GLOBAL__N_115ComplexityGuardD2Ev(ptr noundef nonnull align 8 dereferenceable(8) %4) #12
  call void @llvm.lifetime.end.p0(i64 8, ptr %4) #12
  br label %27

25:                                               ; preds = %19, %10
  call void @_ZN4absl18debugging_internal12_GLOBAL__N_115ComplexityGuardD2Ev(ptr noundef nonnull align 8 dereferenceable(8) %4) #12
  call void @llvm.lifetime.end.p0(i64 8, ptr %4) #12
  %26 = load i1, ptr %2, align 1
  ret i1 %26

27:                                               ; preds = %21
  %28 = load ptr, ptr %6, align 8
  %29 = load i32, ptr %7, align 4
  %30 = insertvalue { ptr, i32 } poison, ptr %28, 0
  %31 = insertvalue { ptr, i32 } %30, i32 %29, 1
  resume { ptr, i32 } %31
}