; Function Attrs: mustprogress nofree norecurse nosync nounwind memory(readwrite, inaccessiblemem: none) uwtable
define internal fastcc noundef zeroext i1 @_ZN4absl18debugging_internalL26ParseTemplateTemplateParamEPNS0_5StateE(ptr noundef captures(none) %0) unnamed_addr #4 personality ptr @__gxx_personality_v0 {
  %2 = getelementptr inbounds nuw i8, ptr %0, i64 20
  %3 = load i32, ptr %2, align 4, !tbaa !17
  %4 = add nsw i32 %3, 1
  store i32 %4, ptr %2, align 4, !tbaa !17
  %5 = getelementptr inbounds nuw i8, ptr %0, i64 24
  %6 = load i32, ptr %5, align 8, !tbaa !15
  %7 = add nsw i32 %6, 1
  store i32 %7, ptr %5, align 8, !tbaa !15
  %8 = icmp sgt i32 %3, 255
  %9 = icmp sgt i32 %6, 131071
  %or.cond = select i1 %8, i1 true, i1 %9
  br i1 %or.cond, label %_ZNK4absl18debugging_internal12_GLOBAL__N_115ComplexityGuard12IsTooComplexEv.exit.thread, label %10

10:                                               ; preds = %1
  %11 = tail call fastcc noundef zeroext i1 @_ZN4absl18debugging_internalL18ParseTemplateParamEPNS0_5StateE(ptr noundef nonnull %0)
  br i1 %11, label %_ZNK4absl18debugging_internal12_GLOBAL__N_115ComplexityGuard12IsTooComplexEv.exit.thread, label %12

12:                                               ; preds = %10
  %13 = tail call fastcc noundef zeroext i1 @_ZN4absl18debugging_internalL17ParseSubstitutionEPNS0_5StateEb(ptr noundef nonnull %0, i1 noundef zeroext false)
  br label %_ZNK4absl18debugging_internal12_GLOBAL__N_115ComplexityGuard12IsTooComplexEv.exit.thread

_ZNK4absl18debugging_internal12_GLOBAL__N_115ComplexityGuard12IsTooComplexEv.exit.thread: ; preds = %12, %1, %10
  %.0 = phi i1 [ true, %10 ], [ %13, %12 ], [ false, %1 ]
  %14 = load i32, ptr %2, align 4, !tbaa !17
  %15 = add nsw i32 %14, -1
  store i32 %15, ptr %2, align 4, !tbaa !17
  ret i1 %.0
}